(dp0
Vroomtype
p1
(lp2
Vsmoking
p3
aVnon smoking
p4
asVnumberofpeople
p5
(lp6
V1
p7
aV2
p8
asVname
p9
(lp10
Vyamada
p11
aVtanaka
p12
asVgreeting
p13
(lp14
Vhey
p15
aVhello
p16
aVgood morning
p17
aVhi
p18
aVthere
p19
aVhello there
p20
aVhappy to
p21
aVgood evening
p22
aVhi welcome
p23
aVhey there
p24
aVhi there
p25
asVother
p26
(lp27
Vnot available
p28
aVmovie assistant number
p29
aVmovie booking service
p30
aVsearch theater
p31
aVcannot book
p32
aVservicing tickets
p33
aVrotten tomatoes
p34
aVpub serves good burgers
p35
aVserves seafood
p36
aVdate
p37
aVscary
p38
aVrestaurant
p39
aVbeer
p40
aVmexican restaurant
p41
aVbest restaurant
p42
aVjapanese restaurant
p43
aVthat's odd
p44
aVcrossed
p45
aVlittle late
p46
aVpub
p47
aVnumber 1
p48
aVswitch cities
p49
aVname
p50
aVunable to book movies
p51
aVI cannot understand your reply
p52
aVpurchase tickets
p53
aVlook up date
p54
aVincreased functionality
p55
aVfunctionality
p56
aVMaster User
p57
aVmaster user
p58
aVtwo
p59
aVanother preference
p60
aVno
p61
aVcheck again
p62
aVnew release
p63
aVnew releases
p64
aVplace that serves seafood
p65
aVfavorite part
p66
aVworth watching
p67
aVsubtitiles
p68
aVsubtitles
p69
aVmany many theaters
p70
aVdifferent selection of movies
p71
aVsearch for a theater
p72
aVlatest showing
p73
aVItalian restaurant
p74
aVrestaurant booking service
p75
aVonline ticketing
p76
aVI can't remember
p77
aVcan't think of
p78
aVsearch theaters
p79
aVcheapest
p80
aVdo not know
p81
aVdate night
p82
aVdisney
p83
aVsearch by movie or movie theater
p84
aVindian restaurant
p85
aV movie purchasing service
p86
aVmovie ticket buying service
p87
aVearly in the day
p88
aVsafeco field
p89
aVmany
p90
aVpizza place
p91
aVrestaurant reservations
p92
aVpizza restaurant
p93
aVrestaurant service
p94
aVlaughable
p95
aVenglish and chinese subtitles
p96
aVmatinee
p97
aV matinee
p98
aVgood restaurant
p99
aVcurrently
p100
aVgeorge on the riverwak
p101
aVpurchase
p102
aVodd
p103
aVgot crossed
p104
aV29 movies
p105
aVI can bring my cat to
p106
aVI can order beer in
p107
aVdon't know
p108
aVclosed
p109
aVserve alcohol
p110
aVI don't know
p111
aVI'm not from around here
p112
aVrestaurants
p113
aVbook movie tickets
p114
aVbefore dinner
p115
asVdate
p116
(lp117
V1
p118
aV2
p119
asVreservation
p120
(lp121
VYes
p122
aVNo
p123
as.