(dp0
V1
p1
(dp2
Vreservation
p3
VYes
p4
sVname
p5
Vyamada
p6
ssV0
p7
(dp8
Vreservation
p9
VYes
p10
sVname
p11
Vtanaka
p12
ssV3
p13
(dp14
Vdate
p15
V2
p16
sVroomtype
p17
Vnon smoking
p18
sVname
p19
Vyamada
p20
sVreservation
p21
VNo
p22
ssV2
p23
(dp24
Vdate
p25
V2
p26
sVroomtype
p27
Vsmoking
p28
sVname
p29
Vyamada
p30
sVreservation
p31
VNo
p32
ssV5
p33
(dp34
Vdate
p35
V1
p36
sVroomtype
p37
Vnon smoking
p38
sVname
p39
Vyamada
p40
sVreservation
p41
VNo
p42
ssV4
p43
(dp44
Vdate
p45
V1
p46
sVroomtype
p47
Vsmoking
p48
sVname
p49
Vyamada
p50
sVreservation
p51
VNo
p52
ssV7
p53
(dp54
Vdate
p55
V2
p56
sVroomtype
p57
Vnon smoking
p58
sVname
p59
Vtanaka
p60
sVreservation
p61
VNo
p62
ssV6
p63
(dp64
Vdate
p65
V2
p66
sVroomtype
p67
Vsmoking
p68
sVname
p69
Vtanaka
p70
sVreservation
p71
VNo
p72
ssV9
p73
(dp74
Vdate
p75
V1
p76
sVroomtype
p77
Vnon smoking
p78
sVname
p79
Vtanaka
p80
sVreservation
p81
VNo
p82
ssV8
p83
(dp84
Vdate
p85
V1
p86
sVroomtype
p87
Vsmoking
p88
sVname
p89
Vtanaka
p90
sVreservation
p91
VNo
p92
ss.