(lp0
(dp1
Vrequest_slots
p2
(dp3
sVdiaact
p4
Vrequest
p5
sVinform_slots
p6
(dp7
Vdate
p8
V1
p9
sVroomtype
p10
Vsmoking
p11
sVname
p12
Vyamada
p13
sVreservation
p14
VNo
p15
ssa(dp16
Vrequest_slots
p17
(dp18
sVdiaact
p19
Vrequest
p20
sVinform_slots
p21
(dp22
Vreservation
p23
VYes
p24
sVname
p25
Vyamada
p26
ssa(dp27
Vrequest_slots
p28
(dp29
sVdiaact
p30
Vrequest
p31
sVinform_slots
p32
(dp33
Vreservation
p34
VYes
p35
sVname
p36
Vyamada
p37
ssa(dp38
Vrequest_slots
p39
(dp40
sVdiaact
p41
Vrequest
p42
sVinform_slots
p43
(dp44
Vdate
p45
V1
p46
sVroomtype
p47
Vsmoking
p48
sVname
p49
Vyamada
p50
sVreservation
p51
VNo
p52
ssa(dp53
Vrequest_slots
p54
(dp55
sVdiaact
p56
Vrequest
p57
sVinform_slots
p58
(dp59
Vdate
p60
V2
p61
sVroomtype
p62
Vnon smoking
p63
sVname
p64
Vyamada
p65
sVreservation
p66
VNo
p67
ssa(dp68
Vrequest_slots
p69
(dp70
sVdiaact
p71
Vrequest
p72
sVinform_slots
p73
(dp74
Vdate
p75
V1
p76
sVroomtype
p77
Vsmoking
p78
sVname
p79
Vtanaka
p80
sVreservation
p81
VNo
p82
ssa(dp83
Vrequest_slots
p84
(dp85
sVdiaact
p86
Vrequest
p87
sVinform_slots
p88
(dp89
Vreservation
p90
VYes
p91
sVname
p92
Vtanaka
p93
ssa(dp94
Vrequest_slots
p95
(dp96
sVdiaact
p97
Vrequest
p98
sVinform_slots
p99
(dp100
Vreservation
p101
VYes
p102
sVname
p103
Vtanaka
p104
ssa(dp105
Vrequest_slots
p106
(dp107
sVdiaact
p108
Vrequest
p109
sVinform_slots
p110
(dp111
Vdate
p112
V1
p113
sVroomtype
p114
Vsmoking
p115
sVname
p116
Vtanaka
p117
sVreservation
p118
VNo
p119
ssa(dp120
Vrequest_slots
p121
(dp122
sVdiaact
p123
Vrequest
p124
sVinform_slots
p125
(dp126
Vdate
p127
V2
p128
sVroomtype
p129
Vnon smoking
p130
sVname
p131
Vtanaka
p132
sVreservation
p133
VNo
p134
ssa.